; Function Attrs: nounwind uwtable
define ptr @OSSL_CMP_ATAV_new_algId(ptr noundef %0) local_unnamed_addr #1 {
  %2 = icmp eq ptr %0, null
  br i1 %2, label %3, label %4

3:                                                ; preds = %1
  tail call void @ERR_new() #6
  tail call void @ERR_set_debug(ptr noundef nonnull @.str.12, i32 noundef 506, ptr noundef nonnull @__func__.OSSL_CMP_ATAV_new_algId) #6
  tail call void (i32, i32, ptr, ...) @ERR_set_error(i32 noundef 58, i32 noundef 103, ptr noundef null) #6
  br label %13

4:                                                ; preds = %1
  %5 = tail call ptr @X509_ALGOR_dup(ptr noundef nonnull %0) #6
  %6 = icmp eq ptr %5, null
  br i1 %6, label %13, label %7

7:                                                ; preds = %4
  %8 = tail call ptr @OBJ_nid2obj(i32 noundef 1259) #6
  %9 = tail call ptr @OSSL_CRMF_ATTRIBUTETYPEANDVALUE_new() #6
  %10 = icmp eq ptr %9, null
  br i1 %10, label %12, label %OSSL_CMP_ATAV_create.exit

OSSL_CMP_ATAV_create.exit:                        ; preds = %7
  store ptr %8, ptr %9, align 8, !tbaa !29
  %11 = getelementptr inbounds nuw i8, ptr %9, i64 8
  store ptr %5, ptr %11, align 8, !tbaa !9
  br label %13

12:                                               ; preds = %7
  tail call void @X509_ALGOR_free(ptr noundef nonnull %5) #6
  br label %13

13:                                               ; preds = %OSSL_CMP_ATAV_create.exit, %12, %4, %3
  %.0 = phi ptr [ null, %3 ], [ null, %4 ], [ null, %12 ], [ %9, %OSSL_CMP_ATAV_create.exit ]
  ret ptr %.0
}